; Function Attrs: mustprogress nofree norecurse nosync nounwind willreturn memory(argmem: read) uwtable
define i32 @uhash_hashScriptSet_75(ptr nocapture readonly %key.coerce) local_unnamed_addr #5 {
entry:
  br label %for.body.i

for.body.i:                                       ; preds = %for.body.i, %entry
  %indvars.iv.i = phi i64 [ 0, %entry ], [ %indvars.iv.next.i, %for.body.i ]
  %hash.04.i = phi i32 [ 0, %entry ], [ %xor.i, %for.body.i ]
  %arrayidx.i = getelementptr inbounds [7 x i32], ptr %key.coerce, i64 0, i64 %indvars.iv.i
  %0 = load i32, ptr %arrayidx.i, align 4
  %xor.i = xor i32 %0, %hash.04.i
  %indvars.iv.next.i = add nuw nsw i64 %indvars.iv.i, 1
  %exitcond.not.i = icmp eq i64 %indvars.iv.next.i, 7
  br i1 %exitcond.not.i, label %_ZNK6icu_759ScriptSet8hashCodeEv.exit, label %for.body.i, !llvm.loop !11

_ZNK6icu_759ScriptSet8hashCodeEv.exit:            ; preds = %for.body.i
  ret i32 %xor.i
}